target datalayout = "e-m:e-p270:32:32-p271:32:32-p272:64:64-i64:64-i128:128-f80:128-n8:16:32:64-S128"
target triple = "x86_64-unknown-linux-gnu"

%struct.V9fsState = type { %struct.anon, %struct.anon.0, ptr, ptr, %struct.FsContext, ptr, i32, i32, [128 x %struct.V9fsPDU], ptr, %struct.CoRwlock, i32, ptr, %struct.V9fsConf, %struct.stat, i64, %struct.qht, %struct.qht, %struct.qht, i64, i16, i64 }
%struct.anon = type { ptr }
%struct.anon.0 = type { ptr }
%struct.FsContext = type { i32, ptr, i32, ptr, %struct.ExtendedOps, ptr, ptr, i32, i32 }
%struct.ExtendedOps = type { ptr }
%struct.V9fsPDU = type { i32, i16, i8, i8, %struct.CoQueue, ptr, %struct.anon.2, i32 }
%struct.CoQueue = type { %struct.anon.1 }
%struct.anon.1 = type { ptr, ptr }
%struct.anon.2 = type { ptr, ptr }
%struct.CoRwlock = type { %struct.CoMutex, i32, %struct.anon.4 }
%struct.CoMutex = type { i32, ptr, %struct.anon.3, %struct.anon.3, i32, i32, ptr }
%struct.anon.3 = type { ptr }
%struct.anon.4 = type { ptr, ptr }
%struct.V9fsConf = type { ptr, ptr }
%struct.stat = type { i64, i64, i64, i32, i32, i32, i32, i64, i64, i64, i64, %struct.timespec, %struct.timespec, %struct.timespec, [3 x i64] }
%struct.timespec = type { i64, i64 }
%struct.qht = type { ptr, ptr, %struct.QemuMutex, i32 }
%struct.QemuMutex = type { %union.pthread_mutex_t, i8 }
%union.pthread_mutex_t = type { %struct.__pthread_mutex_s }
%struct.__pthread_mutex_s = type { i32, i32, i32, i32, i32, i16, i16, %struct.__pthread_internal_list }
%struct.__pthread_internal_list = type { ptr, ptr }
%struct.V9fsString = type { i16, ptr }
%struct.timeval = type { i64, i64 }

@trace_events_enabled_count = external global i32, align 4
@message_with_timestamp = external global i8, align 1
@qemu_loglevel = external global i32, align 4
@.str.111 = private unnamed_addr constant [3 x i8] c"ds\00", align 1
@.str.112 = private unnamed_addr constant [9 x i8] c"9P2000.u\00", align 1
@.str.113 = private unnamed_addr constant [9 x i8] c"9P2000.L\00", align 1
@.str.114 = private unnamed_addr constant [8 x i8] c"unknown\00", align 1
@.str.115 = private unnamed_addr constant [78 x i8] c"9pfs: Client requested msize < minimum msize (4096) supported by this server.\00", align 1
@v9fs_version.print_once_ = internal global i8 0, align 1
@.str.116 = private unnamed_addr constant [182 x i8] c"9p: degraded performance: a reasonable high msize should be chosen on client/guest side (chosen msize is <= 8192). See https://wiki.qemu.org/Documentation/9psetup#msize for details.\00", align 1
@_TRACE_V9FS_VERSION_DSTATE = external global i16, align 2
@.str.117 = private unnamed_addr constant [60 x i8] c"%d@%zu.%06zu:v9fs_version tag %d id %d msize %d version %s\0A\00", align 1
@.str.118 = private unnamed_addr constant [47 x i8] c"v9fs_version tag %d id %d msize %d version %s\0A\00", align 1
@_TRACE_V9FS_VERSION_RETURN_DSTATE = external global i16, align 2
@.str.119 = private unnamed_addr constant [67 x i8] c"%d@%zu.%06zu:v9fs_version_return tag %d id %d msize %d version %s\0A\00", align 1
@.str.120 = private unnamed_addr constant [54 x i8] c"v9fs_version_return tag %d id %d msize %d version %s\0A\00", align 1

; Function Attrs: nounwind sspstrong uwtable
define internal zeroext i1 @qemu_loglevel_mask(i32 noundef %mask) #0 {
entry:
  %mask.addr = alloca i32, align 4
  store i32 %mask, ptr %mask.addr, align 4
  %0 = load i32, ptr @qemu_loglevel, align 4
  %1 = load i32, ptr %mask.addr, align 4
  %and = and i32 %0, %1
  %cmp = icmp ne i32 %and, 0
  ret i1 %cmp
}

; Function Attrs: nounwind sspstrong uwtable
define internal void @_nocheck__trace_v9fs_version_return(i16 noundef zeroext %tag, i8 noundef zeroext %id, i32 noundef %msize, ptr noundef %version) #0 {
entry:
  %tag.addr = alloca i16, align 2
  %id.addr = alloca i8, align 1
  %msize.addr = alloca i32, align 4
  %version.addr = alloca ptr, align 8
  %_now = alloca %struct.timeval, align 8
  store i16 %tag, ptr %tag.addr, align 2
  store i8 %id, ptr %id.addr, align 1
  store i32 %msize, ptr %msize.addr, align 4
  store ptr %version, ptr %version.addr, align 8
  %0 = load i32, ptr @trace_events_enabled_count, align 4
  %tobool = icmp ne i32 %0, 0
  %lnot = xor i1 %tobool, true
  %lnot1 = xor i1 %lnot, true
  %lnot.ext = zext i1 %lnot1 to i32
  %conv = sext i32 %lnot.ext to i64
  %tobool2 = icmp ne i64 %conv, 0
  br i1 %tobool2, label %land.lhs.true, label %if.end15

land.lhs.true:                                    ; preds = %entry
  %1 = load i16, ptr @_TRACE_V9FS_VERSION_RETURN_DSTATE, align 2
  %conv3 = zext i16 %1 to i32
  %tobool4 = icmp ne i32 %conv3, 0
  br i1 %tobool4, label %land.lhs.true5, label %if.end15

land.lhs.true5:                                   ; preds = %land.lhs.true
  %call = call zeroext i1 @qemu_loglevel_mask(i32 noundef 32768)
  br i1 %call, label %if.then, label %if.end15

if.then:                                          ; preds = %land.lhs.true5
  %2 = load i8, ptr @message_with_timestamp, align 1
  %tobool7 = trunc i8 %2 to i1
  br i1 %tobool7, label %if.then8, label %if.else

if.then8:                                         ; preds = %if.then
  %call9 = call i32 @gettimeofday(ptr noundef %_now, ptr noundef null) #19
  %call10 = call i32 @qemu_get_thread_id()
  %tv_sec = getelementptr inbounds %struct.timeval, ptr %_now, i32 0, i32 0
  %3 = load i64, ptr %tv_sec, align 8
  %tv_usec = getelementptr inbounds %struct.timeval, ptr %_now, i32 0, i32 1
  %4 = load i64, ptr %tv_usec, align 8
  %5 = load i16, ptr %tag.addr, align 2
  %conv11 = zext i16 %5 to i32
  %6 = load i8, ptr %id.addr, align 1
  %conv12 = zext i8 %6 to i32
  %7 = load i32, ptr %msize.addr, align 4
  %8 = load ptr, ptr %version.addr, align 8
  call void (ptr, ...) @qemu_log(ptr noundef @.str.119, i32 noundef %call10, i64 noundef %3, i64 noundef %4, i32 noundef %conv11, i32 noundef %conv12, i32 noundef %7, ptr noundef %8)
  br label %if.end

if.else:                                          ; preds = %if.then
  %9 = load i16, ptr %tag.addr, align 2
  %conv13 = zext i16 %9 to i32
  %10 = load i8, ptr %id.addr, align 1
  %conv14 = zext i8 %10 to i32
  %11 = load i32, ptr %msize.addr, align 4
  %12 = load ptr, ptr %version.addr, align 8
  call void (ptr, ...) @qemu_log(ptr noundef @.str.120, i32 noundef %conv13, i32 noundef %conv14, i32 noundef %11, ptr noundef %12)
  br label %if.end

if.end:                                           ; preds = %if.else, %if.then8
  br label %if.end15

if.end15:                                         ; preds = %if.end, %land.lhs.true5, %land.lhs.true, %entry
  ret void
}

; Function Attrs: nounwind sspstrong uwtable
define internal void @_nocheck__trace_v9fs_version(i16 noundef zeroext %tag, i8 noundef zeroext %id, i32 noundef %msize, ptr noundef %version) #0 {
entry:
  %tag.addr = alloca i16, align 2
  %id.addr = alloca i8, align 1
  %msize.addr = alloca i32, align 4
  %version.addr = alloca ptr, align 8
  %_now = alloca %struct.timeval, align 8
  store i16 %tag, ptr %tag.addr, align 2
  store i8 %id, ptr %id.addr, align 1
  store i32 %msize, ptr %msize.addr, align 4
  store ptr %version, ptr %version.addr, align 8
  %0 = load i32, ptr @trace_events_enabled_count, align 4
  %tobool = icmp ne i32 %0, 0
  %lnot = xor i1 %tobool, true
  %lnot1 = xor i1 %lnot, true
  %lnot.ext = zext i1 %lnot1 to i32
  %conv = sext i32 %lnot.ext to i64
  %tobool2 = icmp ne i64 %conv, 0
  br i1 %tobool2, label %land.lhs.true, label %if.end15

land.lhs.true:                                    ; preds = %entry
  %1 = load i16, ptr @_TRACE_V9FS_VERSION_DSTATE, align 2
  %conv3 = zext i16 %1 to i32
  %tobool4 = icmp ne i32 %conv3, 0
  br i1 %tobool4, label %land.lhs.true5, label %if.end15

land.lhs.true5:                                   ; preds = %land.lhs.true
  %call = call zeroext i1 @qemu_loglevel_mask(i32 noundef 32768)
  br i1 %call, label %if.then, label %if.end15

if.then:                                          ; preds = %land.lhs.true5
  %2 = load i8, ptr @message_with_timestamp, align 1
  %tobool7 = trunc i8 %2 to i1
  br i1 %tobool7, label %if.then8, label %if.else

if.then8:                                         ; preds = %if.then
  %call9 = call i32 @gettimeofday(ptr noundef %_now, ptr noundef null) #19
  %call10 = call i32 @qemu_get_thread_id()
  %tv_sec = getelementptr inbounds %struct.timeval, ptr %_now, i32 0, i32 0
  %3 = load i64, ptr %tv_sec, align 8
  %tv_usec = getelementptr inbounds %struct.timeval, ptr %_now, i32 0, i32 1
  %4 = load i64, ptr %tv_usec, align 8
  %5 = load i16, ptr %tag.addr, align 2
  %conv11 = zext i16 %5 to i32
  %6 = load i8, ptr %id.addr, align 1
  %conv12 = zext i8 %6 to i32
  %7 = load i32, ptr %msize.addr, align 4
  %8 = load ptr, ptr %version.addr, align 8
  call void (ptr, ...) @qemu_log(ptr noundef @.str.117, i32 noundef %call10, i64 noundef %3, i64 noundef %4, i32 noundef %conv11, i32 noundef %conv12, i32 noundef %7, ptr noundef %8)
  br label %if.end

if.else:                                          ; preds = %if.then
  %9 = load i16, ptr %tag.addr, align 2
  %conv13 = zext i16 %9 to i32
  %10 = load i8, ptr %id.addr, align 1
  %conv14 = zext i8 %10 to i32
  %11 = load i32, ptr %msize.addr, align 4
  %12 = load ptr, ptr %version.addr, align 8
  call void (ptr, ...) @qemu_log(ptr noundef @.str.118, i32 noundef %conv13, i32 noundef %conv14, i32 noundef %11, ptr noundef %12)
  br label %if.end

if.end:                                           ; preds = %if.else, %if.then8
  br label %if.end15

if.end15:                                         ; preds = %if.end, %land.lhs.true5, %land.lhs.true, %entry
  ret void
}

; Function Attrs: nounwind sspstrong uwtable
define internal void @trace_v9fs_version_return(i16 noundef zeroext %tag, i8 noundef zeroext %id, i32 noundef %msize, ptr noundef %version) #0 {
entry:
  %tag.addr = alloca i16, align 2
  %id.addr = alloca i8, align 1
  %msize.addr = alloca i32, align 4
  %version.addr = alloca ptr, align 8
  store i16 %tag, ptr %tag.addr, align 2
  store i8 %id, ptr %id.addr, align 1
  store i32 %msize, ptr %msize.addr, align 4
  store ptr %version, ptr %version.addr, align 8
  %0 = load i16, ptr %tag.addr, align 2
  %1 = load i8, ptr %id.addr, align 1
  %2 = load i32, ptr %msize.addr, align 4
  %3 = load ptr, ptr %version.addr, align 8
  call void @_nocheck__trace_v9fs_version_return(i16 noundef zeroext %0, i8 noundef zeroext %1, i32 noundef %2, ptr noundef %3)
  ret void
}

; Function Attrs: nounwind sspstrong uwtable
define internal void @trace_v9fs_version(i16 noundef zeroext %tag, i8 noundef zeroext %id, i32 noundef %msize, ptr noundef %version) #0 {
entry:
  %tag.addr = alloca i16, align 2
  %id.addr = alloca i8, align 1
  %msize.addr = alloca i32, align 4
  %version.addr = alloca ptr, align 8
  store i16 %tag, ptr %tag.addr, align 2
  store i8 %id, ptr %id.addr, align 1
  store i32 %msize, ptr %msize.addr, align 4
  store ptr %version, ptr %version.addr, align 8
  %0 = load i16, ptr %tag.addr, align 2
  %1 = load i8, ptr %id.addr, align 1
  %2 = load i32, ptr %msize.addr, align 4
  %3 = load ptr, ptr %version.addr, align 8
  call void @_nocheck__trace_v9fs_version(i16 noundef zeroext %0, i8 noundef zeroext %1, i32 noundef %2, ptr noundef %3)
  ret void
}

; Function Attrs: nounwind sspstrong uwtable
define internal void @v9fs_string_init(ptr noundef %str) #0 {
entry:
  %str.addr = alloca ptr, align 8
  store ptr %str, ptr %str.addr, align 8
  %0 = load ptr, ptr %str.addr, align 8
  %data = getelementptr inbounds %struct.V9fsString, ptr %0, i32 0, i32 1
  store ptr null, ptr %data, align 8
  %1 = load ptr, ptr %str.addr, align 8
  %size = getelementptr inbounds %struct.V9fsString, ptr %1, i32 0, i32 0
  store i16 0, ptr %size, align 8
  ret void
}

; Function Attrs: nounwind sspstrong uwtable
define internal void @v9fs_version(ptr noundef %opaque) #0 {
entry:
  %opaque.addr = alloca ptr, align 8
  %err = alloca i64, align 8
  %pdu = alloca ptr, align 8
  %s = alloca ptr, align 8
  %version = alloca %struct.V9fsString, align 8
  %offset = alloca i64, align 8
  %tmp = alloca i8, align 1
  store ptr %opaque, ptr %opaque.addr, align 8
  %0 = load ptr, ptr %opaque.addr, align 8
  store ptr %0, ptr %pdu, align 8
  %1 = load ptr, ptr %pdu, align 8
  %s1 = getelementptr inbounds %struct.V9fsPDU, ptr %1, i32 0, i32 5
  %2 = load ptr, ptr %s1, align 8
  store ptr %2, ptr %s, align 8
  store i64 7, ptr %offset, align 8
  call void @v9fs_string_init(ptr noundef %version)
  %3 = load ptr, ptr %pdu, align 8
  %4 = load i64, ptr %offset, align 8
  %5 = load ptr, ptr %s, align 8
  %msize = getelementptr inbounds %struct.V9fsState, ptr %5, i32 0, i32 7
  %call = call i64 (ptr, i64, ptr, ...) @pdu_unmarshal(ptr noundef %3, i64 noundef %4, ptr noundef @.str.111, ptr noundef %msize, ptr noundef %version)
  store i64 %call, ptr %err, align 8
  %6 = load i64, ptr %err, align 8
  %cmp = icmp slt i64 %6, 0
  br i1 %cmp, label %if.then, label %if.end

if.then:                                          ; preds = %entry
  br label %out

if.end:                                           ; preds = %entry
  %7 = load ptr, ptr %pdu, align 8
  %tag = getelementptr inbounds %struct.V9fsPDU, ptr %7, i32 0, i32 1
  %8 = load i16, ptr %tag, align 4
  %9 = load ptr, ptr %pdu, align 8
  %id = getelementptr inbounds %struct.V9fsPDU, ptr %9, i32 0, i32 2
  %10 = load i8, ptr %id, align 2
  %11 = load ptr, ptr %s, align 8
  %msize2 = getelementptr inbounds %struct.V9fsState, ptr %11, i32 0, i32 7
  %12 = load i32, ptr %msize2, align 4
  %data = getelementptr inbounds %struct.V9fsString, ptr %version, i32 0, i32 1
  %13 = load ptr, ptr %data, align 8
  call void @trace_v9fs_version(i16 noundef zeroext %8, i8 noundef zeroext %10, i32 noundef %12, ptr noundef %13)
  %14 = load ptr, ptr %pdu, align 8
  call void @virtfs_reset(ptr noundef %14)
  %data3 = getelementptr inbounds %struct.V9fsString, ptr %version, i32 0, i32 1
  %15 = load ptr, ptr %data3, align 8
  %call4 = call i32 @strcmp(ptr noundef %15, ptr noundef @.str.112) #18
  %tobool = icmp ne i32 %call4, 0
  br i1 %tobool, label %if.else, label %if.then5

if.then5:                                         ; preds = %if.end
  %16 = load ptr, ptr %s, align 8
  %proto_version = getelementptr inbounds %struct.V9fsState, ptr %16, i32 0, i32 6
  store i32 1, ptr %proto_version, align 8
  br label %if.end13

if.else:                                          ; preds = %if.end
  %data6 = getelementptr inbounds %struct.V9fsString, ptr %version, i32 0, i32 1
  %17 = load ptr, ptr %data6, align 8
  %call7 = call i32 @strcmp(ptr noundef %17, ptr noundef @.str.113) #18
  %tobool8 = icmp ne i32 %call7, 0
  br i1 %tobool8, label %if.else11, label %if.then9

if.then9:                                         ; preds = %if.else
  %18 = load ptr, ptr %s, align 8
  %proto_version10 = getelementptr inbounds %struct.V9fsState, ptr %18, i32 0, i32 6
  store i32 2, ptr %proto_version10, align 8
  br label %if.end12

if.else11:                                        ; preds = %if.else
  call void (ptr, ptr, ...) @v9fs_string_sprintf(ptr noundef %version, ptr noundef @.str.114)
  br label %marshal

if.end12:                                         ; preds = %if.then9
  br label %if.end13

if.end13:                                         ; preds = %if.end12, %if.then5
  %19 = load ptr, ptr %s, align 8
  %msize14 = getelementptr inbounds %struct.V9fsState, ptr %19, i32 0, i32 7
  %20 = load i32, ptr %msize14, align 4
  %cmp15 = icmp slt i32 %20, 4096
  br i1 %cmp15, label %if.then16, label %if.end17

if.then16:                                        ; preds = %if.end13
  store i64 -90, ptr %err, align 8
  call void (ptr, ...) @error_report(ptr noundef @.str.115)
  br label %out

if.end17:                                         ; preds = %if.end13
  %21 = load ptr, ptr %s, align 8
  %msize18 = getelementptr inbounds %struct.V9fsState, ptr %21, i32 0, i32 7
  %22 = load i32, ptr %msize18, align 4
  %cmp19 = icmp sle i32 %22, 8192
  br i1 %cmp19, label %land.lhs.true, label %if.end24

land.lhs.true:                                    ; preds = %if.end17
  %23 = load ptr, ptr %s, align 8
  %ctx = getelementptr inbounds %struct.V9fsState, ptr %23, i32 0, i32 4
  %export_flags = getelementptr inbounds %struct.FsContext, ptr %ctx, i32 0, i32 2
  %24 = load i32, ptr %export_flags, align 8
  %and = and i32 %24, 2048
  %tobool20 = icmp ne i32 %and, 0
  br i1 %tobool20, label %if.end24, label %if.then21

if.then21:                                        ; preds = %land.lhs.true
  %call22 = call zeroext i1 (ptr, ptr, ...) @warn_report_once_cond(ptr noundef @v9fs_version.print_once_, ptr noundef @.str.116)
  %frombool = zext i1 %call22 to i8
  store i8 %frombool, ptr %tmp, align 1
  br label %if.end24

if.end24:                                         ; preds = %if.then21, %land.lhs.true, %if.end17
  br label %marshal

marshal:                                          ; preds = %if.end24, %if.else11
  %25 = load ptr, ptr %pdu, align 8
  %26 = load i64, ptr %offset, align 8
  %27 = load ptr, ptr %s, align 8
  %msize25 = getelementptr inbounds %struct.V9fsState, ptr %27, i32 0, i32 7
  %28 = load i32, ptr %msize25, align 4
  %call26 = call i64 (ptr, i64, ptr, ...) @pdu_marshal(ptr noundef %25, i64 noundef %26, ptr noundef @.str.111, i32 noundef %28, ptr noundef %version)
  store i64 %call26, ptr %err, align 8
  %29 = load i64, ptr %err, align 8
  %cmp27 = icmp slt i64 %29, 0
  br i1 %cmp27, label %if.then28, label %if.end29

if.then28:                                        ; preds = %marshal
  br label %out

if.end29:                                         ; preds = %marshal
  %30 = load i64, ptr %offset, align 8
  %31 = load i64, ptr %err, align 8
  %add = add i64 %31, %30
  store i64 %add, ptr %err, align 8
  %32 = load ptr, ptr %pdu, align 8
  %tag30 = getelementptr inbounds %struct.V9fsPDU, ptr %32, i32 0, i32 1
  %33 = load i16, ptr %tag30, align 4
  %34 = load ptr, ptr %pdu, align 8
  %id31 = getelementptr inbounds %struct.V9fsPDU, ptr %34, i32 0, i32 2
  %35 = load i8, ptr %id31, align 2
  %36 = load ptr, ptr %s, align 8
  %msize32 = getelementptr inbounds %struct.V9fsState, ptr %36, i32 0, i32 7
  %37 = load i32, ptr %msize32, align 4
  %data33 = getelementptr inbounds %struct.V9fsString, ptr %version, i32 0, i32 1
  %38 = load ptr, ptr %data33, align 8
  call void @trace_v9fs_version_return(i16 noundef zeroext %33, i8 noundef zeroext %35, i32 noundef %37, ptr noundef %38)
  br label %out

out:                                              ; preds = %if.end29, %if.then28, %if.then16, %if.then
  %39 = load ptr, ptr %pdu, align 8
  %40 = load i64, ptr %err, align 8
  call void @pdu_complete(ptr noundef %39, i64 noundef %40)
  call void @v9fs_string_free(ptr noundef %version)
  ret void
}