; Function Attrs: nounwind sspstrong uwtable
define internal void @v9fs_version(ptr noundef %opaque) #0 {
entry:
  %_now.i.i22 = alloca %struct.timeval, align 8
  %_now.i.i = alloca %struct.timeval, align 8
  %version = alloca %struct.V9fsString, align 8
  %s1 = getelementptr inbounds nuw i8, ptr %opaque, i64 24
  %0 = load ptr, ptr %s1, align 8
  %data.i = getelementptr inbounds nuw i8, ptr %version, i64 8
  store ptr null, ptr %data.i, align 8
  store i16 0, ptr %version, align 8
  %msize = getelementptr inbounds nuw i8, ptr %0, i64 108
  %call = call i64 (ptr, i64, ptr, ...) @pdu_unmarshal(ptr noundef %opaque, i64 noundef 7, ptr noundef nonnull @.str.111, ptr noundef nonnull %msize, ptr noundef nonnull %version)
  %cmp = icmp slt i64 %call, 0
  br i1 %cmp, label %out, label %if.end

if.end:                                           ; preds = %entry
  %tag = getelementptr inbounds nuw i8, ptr %opaque, i64 4
  %1 = load i16, ptr %tag, align 4
  %id = getelementptr inbounds nuw i8, ptr %opaque, i64 6
  %2 = load i8, ptr %id, align 2
  %3 = load i32, ptr %msize, align 4
  %4 = load ptr, ptr %data.i, align 8
  call void @llvm.lifetime.start.p0(i64 16, ptr nonnull %_now.i.i)
  %5 = load i32, ptr @trace_events_enabled_count, align 4
  %tobool.i.i = icmp ne i32 %5, 0
  %6 = load i16, ptr @_TRACE_V9FS_VERSION_DSTATE, align 2
  %tobool4.i.i = icmp ne i16 %6, 0
  %or.cond.i.i = select i1 %tobool.i.i, i1 %tobool4.i.i, i1 false
  br i1 %or.cond.i.i, label %land.lhs.true5.i.i, label %trace_v9fs_version.exit

land.lhs.true5.i.i:                               ; preds = %if.end
  %7 = load i32, ptr @qemu_loglevel, align 4
  %and.i.i.i = and i32 %7, 32768
  %cmp.i.not.i.i = icmp eq i32 %and.i.i.i, 0
  br i1 %cmp.i.not.i.i, label %trace_v9fs_version.exit, label %if.then.i.i

if.then.i.i:                                      ; preds = %land.lhs.true5.i.i
  %8 = load i8, ptr @message_with_timestamp, align 1
  %tobool7.i.i = trunc i8 %8 to i1
  br i1 %tobool7.i.i, label %if.then8.i.i, label %if.else.i.i

if.then8.i.i:                                     ; preds = %if.then.i.i
  %call9.i.i = call i32 @gettimeofday(ptr noundef nonnull %_now.i.i, ptr noundef null) #24
  %call10.i.i = call i32 @qemu_get_thread_id() #24
  %9 = load i64, ptr %_now.i.i, align 8
  %tv_usec.i.i = getelementptr inbounds nuw i8, ptr %_now.i.i, i64 8
  %10 = load i64, ptr %tv_usec.i.i, align 8
  %conv11.i.i = zext i16 %1 to i32
  %conv12.i.i = zext i8 %2 to i32
  call void (ptr, ...) @qemu_log(ptr noundef nonnull @.str.117, i32 noundef %call10.i.i, i64 noundef %9, i64 noundef %10, i32 noundef %conv11.i.i, i32 noundef %conv12.i.i, i32 noundef %3, ptr noundef %4) #24
  br label %trace_v9fs_version.exit

if.else.i.i:                                      ; preds = %if.then.i.i
  %conv13.i.i = zext i16 %1 to i32
  %conv14.i.i = zext i8 %2 to i32
  call void (ptr, ...) @qemu_log(ptr noundef nonnull @.str.118, i32 noundef %conv13.i.i, i32 noundef %conv14.i.i, i32 noundef %3, ptr noundef %4) #24
  br label %trace_v9fs_version.exit

trace_v9fs_version.exit:                          ; preds = %if.end, %land.lhs.true5.i.i, %if.then8.i.i, %if.else.i.i
  call void @llvm.lifetime.end.p0(i64 16, ptr nonnull %_now.i.i)
  call void @virtfs_reset(ptr noundef nonnull %opaque)
  %11 = load ptr, ptr %data.i, align 8
  %call4 = call i32 @strcmp(ptr noundef nonnull dereferenceable(1) %11, ptr noundef nonnull dereferenceable(9) @.str.112) #29
  %tobool.not = icmp eq i32 %call4, 0
  br i1 %tobool.not, label %if.end13, label %if.else

if.else:                                          ; preds = %trace_v9fs_version.exit
  %call7 = call i32 @strcmp(ptr noundef nonnull dereferenceable(1) %11, ptr noundef nonnull dereferenceable(9) @.str.113) #29
  %tobool8.not = icmp eq i32 %call7, 0
  br i1 %tobool8.not, label %if.end13, label %if.else11

if.else11:                                        ; preds = %if.else
  call void (ptr, ptr, ...) @v9fs_string_sprintf(ptr noundef nonnull %version, ptr noundef nonnull @.str.114) #24
  br label %marshal

if.end13:                                         ; preds = %if.else, %trace_v9fs_version.exit
  %.sink = phi i32 [ 1, %trace_v9fs_version.exit ], [ 2, %if.else ]
  %proto_version10 = getelementptr inbounds nuw i8, ptr %0, i64 104
  store i32 %.sink, ptr %proto_version10, align 8
  %12 = load i32, ptr %msize, align 4
  %cmp15 = icmp slt i32 %12, 4096
  br i1 %cmp15, label %if.then16, label %if.end17

if.then16:                                        ; preds = %if.end13
  call void (ptr, ...) @error_report(ptr noundef nonnull @.str.115) #24
  br label %out

if.end17:                                         ; preds = %if.end13
  %cmp19 = icmp samesign ult i32 %12, 8193
  br i1 %cmp19, label %land.lhs.true, label %marshal

land.lhs.true:                                    ; preds = %if.end17
  %export_flags = getelementptr inbounds nuw i8, ptr %0, i64 48
  %13 = load i32, ptr %export_flags, align 8
  %and = and i32 %13, 2048
  %tobool20.not = icmp eq i32 %and, 0
  br i1 %tobool20.not, label %if.then21, label %marshal

if.then21:                                        ; preds = %land.lhs.true
  %call22 = call zeroext i1 (ptr, ptr, ...) @warn_report_once_cond(ptr noundef nonnull @v9fs_version.print_once_, ptr noundef nonnull @.str.116) #24
  br label %marshal

marshal:                                          ; preds = %if.end17, %land.lhs.true, %if.then21, %if.else11
  %14 = load i32, ptr %msize, align 4
  %call26 = call i64 (ptr, i64, ptr, ...) @pdu_marshal(ptr noundef nonnull %opaque, i64 noundef 7, ptr noundef nonnull @.str.111, i32 noundef %14, ptr noundef nonnull %version)
  %cmp27 = icmp slt i64 %call26, 0
  br i1 %cmp27, label %out, label %if.end29

if.end29:                                         ; preds = %marshal
  %add = add nuw i64 %call26, 7
  %15 = load i16, ptr %tag, align 4
  %16 = load i8, ptr %id, align 2
  %17 = load i32, ptr %msize, align 4
  %18 = load ptr, ptr %data.i, align 8
  call void @llvm.lifetime.start.p0(i64 16, ptr nonnull %_now.i.i22)
  %19 = load i32, ptr @trace_events_enabled_count, align 4
  %tobool.i.i23 = icmp ne i32 %19, 0
  %20 = load i16, ptr @_TRACE_V9FS_VERSION_RETURN_DSTATE, align 2
  %tobool4.i.i24 = icmp ne i16 %20, 0
  %or.cond.i.i25 = select i1 %tobool.i.i23, i1 %tobool4.i.i24, i1 false
  br i1 %or.cond.i.i25, label %land.lhs.true5.i.i26, label %trace_v9fs_version_return.exit

land.lhs.true5.i.i26:                             ; preds = %if.end29
  %21 = load i32, ptr @qemu_loglevel, align 4
  %and.i.i.i27 = and i32 %21, 32768
  %cmp.i.not.i.i28 = icmp eq i32 %and.i.i.i27, 0
  br i1 %cmp.i.not.i.i28, label %trace_v9fs_version_return.exit, label %if.then.i.i29

if.then.i.i29:                                    ; preds = %land.lhs.true5.i.i26
  %22 = load i8, ptr @message_with_timestamp, align 1
  %tobool7.i.i30 = trunc i8 %22 to i1
  br i1 %tobool7.i.i30, label %if.then8.i.i34, label %if.else.i.i31

if.then8.i.i34:                                   ; preds = %if.then.i.i29
  %call9.i.i35 = call i32 @gettimeofday(ptr noundef nonnull %_now.i.i22, ptr noundef null) #24
  %call10.i.i36 = call i32 @qemu_get_thread_id() #24
  %23 = load i64, ptr %_now.i.i22, align 8
  %tv_usec.i.i37 = getelementptr inbounds nuw i8, ptr %_now.i.i22, i64 8
  %24 = load i64, ptr %tv_usec.i.i37, align 8
  %conv11.i.i38 = zext i16 %15 to i32
  %conv12.i.i39 = zext i8 %16 to i32
  call void (ptr, ...) @qemu_log(ptr noundef nonnull @.str.119, i32 noundef %call10.i.i36, i64 noundef %23, i64 noundef %24, i32 noundef %conv11.i.i38, i32 noundef %conv12.i.i39, i32 noundef %17, ptr noundef %18) #24
  br label %trace_v9fs_version_return.exit

if.else.i.i31:                                    ; preds = %if.then.i.i29
  %conv13.i.i32 = zext i16 %15 to i32
  %conv14.i.i33 = zext i8 %16 to i32
  call void (ptr, ...) @qemu_log(ptr noundef nonnull @.str.120, i32 noundef %conv13.i.i32, i32 noundef %conv14.i.i33, i32 noundef %17, ptr noundef %18) #24
  br label %trace_v9fs_version_return.exit

trace_v9fs_version_return.exit:                   ; preds = %if.end29, %land.lhs.true5.i.i26, %if.then8.i.i34, %if.else.i.i31
  call void @llvm.lifetime.end.p0(i64 16, ptr nonnull %_now.i.i22)
  br label %out

out:                                              ; preds = %marshal, %entry, %trace_v9fs_version_return.exit, %if.then16
  %err.0 = phi i64 [ %call, %entry ], [ %call26, %marshal ], [ %add, %trace_v9fs_version_return.exit ], [ -90, %if.then16 ]
  call void @pdu_complete(ptr noundef nonnull %opaque, i64 noundef %err.0)
  call void @v9fs_string_free(ptr noundef nonnull %version) #24
  ret void
}